; Function Attrs: mustprogress nounwind willreturn uwtable
define internal range(i32 0, 2) i32 @ndef_suffix_free(ptr readnone captures(none) %0, ptr noundef writeonly captures(none) %1, ptr noundef writeonly captures(none) %2, ptr noundef captures(address_is_null) %3) #4 {
  %.not.i = icmp eq ptr %3, null
  br i1 %.not.i, label %ndef_prefix_free.exit.thread, label %5

5:                                                ; preds = %4
  %6 = load ptr, ptr %3, align 8, !tbaa !32
  %7 = getelementptr inbounds nuw i8, ptr %6, i64 40
  %8 = load ptr, ptr %7, align 8, !tbaa !35
  %.not9.i = icmp eq ptr %8, null
  br i1 %.not9.i, label %10, label %9

9:                                                ; preds = %5
  tail call void @free(ptr noundef nonnull %8) #7
  %.pre = load ptr, ptr %3, align 8, !tbaa !32
  br label %10

10:                                               ; preds = %9, %5
  %11 = phi ptr [ %.pre, %9 ], [ %6, %5 ]
  store ptr null, ptr %7, align 8, !tbaa !35
  store ptr null, ptr %1, align 8, !tbaa !34
  store i32 0, ptr %2, align 4, !tbaa !36
  tail call void @free(ptr noundef %11) #7
  store ptr null, ptr %3, align 8, !tbaa !32
  br label %ndef_prefix_free.exit.thread

ndef_prefix_free.exit.thread:                     ; preds = %4, %10
  %.0 = phi i32 [ 1, %10 ], [ 0, %4 ]
  ret i32 %.0
}